target datalayout = "e-m:e-p270:32:32-p271:32:32-p272:64:64-i64:64-i128:128-f80:128-n8:16:32:64-S128"
target triple = "x86_64-pc-linux-gnu"

%struct.GCRef = type { i64 }
%struct.CType = type { i32, i32, i16, i16, %struct.GCRef }
%struct.CTState = type { ptr, i32, i32, ptr, ptr, ptr, %struct.CCallback, [128 x i16] }
%struct.CCallback = type { [8 x %union.FPRCBArg], [8 x i64], ptr, ptr, ptr, i32, i32, i32 }
%union.FPRCBArg = type { double }

; Function Attrs: alwaysinline nounwind uwtable
define internal ptr @ctype_child(ptr noundef %0, ptr noundef %1) #2 {
  %3 = alloca ptr, align 8
  %4 = alloca ptr, align 8
  store ptr %0, ptr %3, align 8, !tbaa !4
  store ptr %1, ptr %4, align 8, !tbaa !14
  %5 = load ptr, ptr %3, align 8, !tbaa !4
  %6 = load ptr, ptr %4, align 8, !tbaa !14
  %7 = getelementptr inbounds nuw %struct.CType, ptr %6, i32 0, i32 0
  %8 = load i32, ptr %7, align 8, !tbaa !16
  %9 = and i32 %8, 65535
  %10 = call ptr @ctype_get(ptr noundef %5, i32 noundef %9)
  ret ptr %10
}

; Function Attrs: alwaysinline nounwind uwtable
define internal i32 @ctype_check(ptr noundef %0, i32 noundef %1) #2 {
  %3 = alloca ptr, align 8
  %4 = alloca i32, align 4
  store ptr %0, ptr %3, align 8, !tbaa !4
  store i32 %1, ptr %4, align 4, !tbaa !12
  %5 = load i32, ptr %4, align 4, !tbaa !12
  ret i32 %5
}

; Function Attrs: alwaysinline nounwind uwtable
define internal ptr @ctype_rawchild(ptr noundef %0, ptr noundef %1) #2 {
  %3 = alloca ptr, align 8
  %4 = alloca ptr, align 8
  store ptr %0, ptr %3, align 8, !tbaa !4
  store ptr %1, ptr %4, align 8, !tbaa !14
  br label %5

5:                                                ; preds = %9, %2
  %6 = load ptr, ptr %3, align 8, !tbaa !4
  %7 = load ptr, ptr %4, align 8, !tbaa !14
  %8 = call ptr @ctype_child(ptr noundef %6, ptr noundef %7)
  store ptr %8, ptr %4, align 8, !tbaa !14
  br label %9

9:                                                ; preds = %5
  %10 = load ptr, ptr %4, align 8, !tbaa !14
  %11 = getelementptr inbounds nuw %struct.CType, ptr %10, i32 0, i32 0
  %12 = load i32, ptr %11, align 8, !tbaa !16
  %13 = lshr i32 %12, 28
  %14 = icmp eq i32 %13, 8
  br i1 %14, label %5, label %15, !llvm.loop !59

15:                                               ; preds = %9
  %16 = load ptr, ptr %4, align 8, !tbaa !14
  ret ptr %16
}

; Function Attrs: alwaysinline nounwind uwtable
define internal ptr @ctype_get(ptr noundef %0, i32 noundef %1) #2 {
  %3 = alloca ptr, align 8
  %4 = alloca i32, align 4
  store ptr %0, ptr %3, align 8, !tbaa !4
  store i32 %1, ptr %4, align 4, !tbaa !12
  %5 = load ptr, ptr %3, align 8, !tbaa !4
  %6 = getelementptr inbounds nuw %struct.CTState, ptr %5, i32 0, i32 0
  %7 = load ptr, ptr %6, align 8, !tbaa !22
  %8 = load ptr, ptr %3, align 8, !tbaa !4
  %9 = load i32, ptr %4, align 4, !tbaa !12
  %10 = call i32 @ctype_check(ptr noundef %8, i32 noundef %9)
  %11 = zext i32 %10 to i64
  %12 = getelementptr inbounds nuw %struct.CType, ptr %7, i64 %11
  ret ptr %12
}

; Function Attrs: nounwind uwtable
define internal i32 @ccall_classify_struct(ptr noundef %0, ptr noundef %1, ptr noundef %2, i32 noundef %3) #0 {
  %5 = alloca i32, align 4
  %6 = alloca ptr, align 8
  %7 = alloca ptr, align 8
  %8 = alloca ptr, align 8
  %9 = alloca i32, align 4
  %10 = alloca i32, align 4
  store ptr %0, ptr %6, align 8, !tbaa !4
  store ptr %1, ptr %7, align 8, !tbaa !14
  store ptr %2, ptr %8, align 8, !tbaa !75
  store i32 %3, ptr %9, align 4, !tbaa !12
  %11 = load ptr, ptr %7, align 8, !tbaa !14
  %12 = getelementptr inbounds nuw %struct.CType, ptr %11, i32 0, i32 1
  %13 = load i32, ptr %12, align 4, !tbaa !21
  %14 = icmp ugt i32 %13, 16
  br i1 %14, label %15, label %16

15:                                               ; preds = %4
  store i32 4, ptr %5, align 4
  br label %87

16:                                               ; preds = %4
  br label %17

17:                                               ; preds = %77, %16
  %18 = load ptr, ptr %7, align 8, !tbaa !14
  %19 = getelementptr inbounds nuw %struct.CType, ptr %18, i32 0, i32 2
  %20 = load i16, ptr %19, align 8, !tbaa !66
  %21 = icmp ne i16 %20, 0
  br i1 %21, label %22, label %78

22:                                               ; preds = %17
  call void @llvm.lifetime.start.p0(i64 4, ptr %10) #8
  %23 = load ptr, ptr %6, align 8, !tbaa !4
  %24 = load ptr, ptr %7, align 8, !tbaa !14
  %25 = getelementptr inbounds nuw %struct.CType, ptr %24, i32 0, i32 2
  %26 = load i16, ptr %25, align 8, !tbaa !66
  %27 = zext i16 %26 to i32
  %28 = call ptr @ctype_get(ptr noundef %23, i32 noundef %27)
  store ptr %28, ptr %7, align 8, !tbaa !14
  %29 = load i32, ptr %9, align 4, !tbaa !12
  %30 = load ptr, ptr %7, align 8, !tbaa !14
  %31 = getelementptr inbounds nuw %struct.CType, ptr %30, i32 0, i32 1
  %32 = load i32, ptr %31, align 4, !tbaa !21
  %33 = add i32 %29, %32
  store i32 %33, ptr %10, align 4, !tbaa !12
  %34 = load ptr, ptr %7, align 8, !tbaa !14
  %35 = getelementptr inbounds nuw %struct.CType, ptr %34, i32 0, i32 0
  %36 = load i32, ptr %35, align 8, !tbaa !16
  %37 = lshr i32 %36, 28
  %38 = icmp eq i32 %37, 9
  br i1 %38, label %39, label %46

39:                                               ; preds = %22
  %40 = load ptr, ptr %6, align 8, !tbaa !4
  %41 = load ptr, ptr %6, align 8, !tbaa !4
  %42 = load ptr, ptr %7, align 8, !tbaa !14
  %43 = call ptr @ctype_rawchild(ptr noundef %41, ptr noundef %42)
  %44 = load ptr, ptr %8, align 8, !tbaa !75
  %45 = load i32, ptr %10, align 4, !tbaa !12
  call void @ccall_classify_ct(ptr noundef %40, ptr noundef %43, ptr noundef %44, i32 noundef %45)
  br label %77

46:                                               ; preds = %22
  %47 = load ptr, ptr %7, align 8, !tbaa !14
  %48 = getelementptr inbounds nuw %struct.CType, ptr %47, i32 0, i32 0
  %49 = load i32, ptr %48, align 8, !tbaa !16
  %50 = lshr i32 %49, 28
  %51 = icmp eq i32 %50, 10
  br i1 %51, label %52, label %61

52:                                               ; preds = %46
  %53 = load ptr, ptr %8, align 8, !tbaa !75
  %54 = load i32, ptr %10, align 4, !tbaa !12
  %55 = icmp uge i32 %54, 8
  %56 = zext i1 %55 to i32
  %57 = sext i32 %56 to i64
  %58 = getelementptr inbounds i32, ptr %53, i64 %57
  %59 = load i32, ptr %58, align 4, !tbaa !12
  %60 = or i32 %59, 1
  store i32 %60, ptr %58, align 4, !tbaa !12
  br label %76

61:                                               ; preds = %46
  %62 = load ptr, ptr %7, align 8, !tbaa !14
  %63 = getelementptr inbounds nuw %struct.CType, ptr %62, i32 0, i32 0
  %64 = load i32, ptr %63, align 8, !tbaa !16
  %65 = and i32 %64, -251723776
  %66 = icmp eq i32 %65, -2147287040
  br i1 %66, label %67, label %75

67:                                               ; preds = %61
  %68 = load ptr, ptr %6, align 8, !tbaa !4
  %69 = load ptr, ptr %6, align 8, !tbaa !4
  %70 = load ptr, ptr %7, align 8, !tbaa !14
  %71 = call ptr @ctype_rawchild(ptr noundef %69, ptr noundef %70)
  %72 = load ptr, ptr %8, align 8, !tbaa !75
  %73 = load i32, ptr %10, align 4, !tbaa !12
  %74 = call i32 @ccall_classify_struct(ptr noundef %68, ptr noundef %71, ptr noundef %72, i32 noundef %73)
  br label %75

75:                                               ; preds = %67, %61
  br label %76

76:                                               ; preds = %75, %52
  br label %77

77:                                               ; preds = %76, %39
  call void @llvm.lifetime.end.p0(i64 4, ptr %10) #8
  br label %17, !llvm.loop !79

78:                                               ; preds = %17
  %79 = load ptr, ptr %8, align 8, !tbaa !75
  %80 = getelementptr inbounds i32, ptr %79, i64 0
  %81 = load i32, ptr %80, align 4, !tbaa !12
  %82 = load ptr, ptr %8, align 8, !tbaa !75
  %83 = getelementptr inbounds i32, ptr %82, i64 1
  %84 = load i32, ptr %83, align 4, !tbaa !12
  %85 = or i32 %81, %84
  %86 = and i32 %85, 4
  store i32 %86, ptr %5, align 4
  br label %87

87:                                               ; preds = %78, %15
  %88 = load i32, ptr %5, align 4
  ret i32 %88
}