; Function Attrs: nofree nosync nounwind memory(readwrite, inaccessiblemem: none) uwtable
define internal fastcc range(i32 0, 5) i32 @ccall_classify_struct(ptr noundef readonly captures(none) %0, ptr noundef readonly captures(none) %1, ptr noundef nonnull captures(none) %2, i32 noundef %3) unnamed_addr #4 {
  %5 = getelementptr inbounds nuw i8, ptr %1, i64 4
  %6 = load i32, ptr %5, align 4, !tbaa !23
  %7 = icmp ugt i32 %6, 16
  br i1 %7, label %49, label %.preheader29

.preheader29:                                     ; preds = %4
  %8 = getelementptr inbounds nuw i8, ptr %1, i64 8
  %9 = load i16, ptr %8, align 8, !tbaa !53
  %.not31 = icmp eq i16 %9, 0
  br i1 %.not31, label %._crit_edge, label %.lr.ph

.lr.ph:                                           ; preds = %.preheader29, %41
  %10 = phi i16 [ %43, %41 ], [ %9, %.preheader29 ]
  %11 = load ptr, ptr %0, align 8, !tbaa !7
  %12 = zext i16 %10 to i64
  %13 = getelementptr inbounds nuw %struct.CType, ptr %11, i64 %12
  %14 = getelementptr inbounds nuw i8, ptr %13, i64 4
  %15 = load i32, ptr %14, align 4, !tbaa !23
  %16 = add i32 %15, %3
  %17 = load i32, ptr %13, align 8, !tbaa !18
  %18 = lshr i32 %17, 28
  switch i32 %18, label %31 [
    i32 9, label %.preheader28
    i32 10, label %25
  ]

.preheader28:                                     ; preds = %.lr.ph, %.preheader28
  %19 = phi i32 [ %23, %.preheader28 ], [ %17, %.lr.ph ]
  %20 = and i32 %19, 65535
  %21 = zext nneg i32 %20 to i64
  %22 = getelementptr inbounds nuw %struct.CType, ptr %11, i64 %21
  %23 = load i32, ptr %22, align 8, !tbaa !18
  %24 = icmp slt i32 %23, -1879048192
  br i1 %24, label %.preheader28, label %ctype_rawchild.exit27, !llvm.loop !44

ctype_rawchild.exit27:                            ; preds = %.preheader28
  tail call fastcc void @ccall_classify_ct(ptr noundef nonnull %0, ptr noundef nonnull %22, ptr noundef %2, i32 noundef %16)
  br label %41

25:                                               ; preds = %.lr.ph
  %26 = icmp ugt i32 %16, 7
  %27 = zext i1 %26 to i64
  %28 = getelementptr inbounds nuw i32, ptr %2, i64 %27
  %29 = load i32, ptr %28, align 4, !tbaa !45
  %30 = or i32 %29, 1
  store i32 %30, ptr %28, align 4, !tbaa !45
  br label %41

31:                                               ; preds = %.lr.ph
  %32 = and i32 %17, -251723776
  %33 = icmp eq i32 %32, -2147287040
  br i1 %33, label %.preheader, label %41

.preheader:                                       ; preds = %31, %.preheader
  %34 = phi i32 [ %38, %.preheader ], [ %17, %31 ]
  %35 = and i32 %34, 65535
  %36 = zext nneg i32 %35 to i64
  %37 = getelementptr inbounds nuw %struct.CType, ptr %11, i64 %36
  %38 = load i32, ptr %37, align 8, !tbaa !18
  %39 = icmp slt i32 %38, -1879048192
  br i1 %39, label %.preheader, label %ctype_rawchild.exit, !llvm.loop !44

ctype_rawchild.exit:                              ; preds = %.preheader
  %40 = tail call fastcc i32 @ccall_classify_struct(ptr noundef nonnull %0, ptr noundef nonnull %37, ptr noundef %2, i32 noundef %16)
  br label %41

41:                                               ; preds = %25, %ctype_rawchild.exit, %31, %ctype_rawchild.exit27
  %42 = getelementptr inbounds nuw i8, ptr %13, i64 8
  %43 = load i16, ptr %42, align 8, !tbaa !53
  %.not = icmp eq i16 %43, 0
  br i1 %.not, label %._crit_edge, label %.lr.ph, !llvm.loop !69

._crit_edge:                                      ; preds = %41, %.preheader29
  %44 = load i32, ptr %2, align 4, !tbaa !45
  %45 = getelementptr inbounds nuw i8, ptr %2, i64 4
  %46 = load i32, ptr %45, align 4, !tbaa !45
  %47 = or i32 %46, %44
  %48 = and i32 %47, 4
  br label %49

49:                                               ; preds = %4, %._crit_edge
  %.0 = phi i32 [ %48, %._crit_edge ], [ 4, %4 ]
  ret i32 %.0
}